target datalayout = "e-m:e-p270:32:32-p271:32:32-p272:64:64-i64:64-i128:128-f80:128-n8:16:32:64-S128"
target triple = "x86_64-pc-linux-gnu"

%struct.H5O_token_t = type { [16 x i8] }
%struct.trav_table_t = type { i64, i64, i64, ptr }
%struct.trav_obj_t = type { %struct.H5O_token_t, [2 x i32], i8, ptr, i32, ptr, i64, i64 }
%struct.trav_link_t = type { ptr }

; Function Attrs: nounwind willreturn memory(read) uwtable
define i32 @h5trav_getindext(ptr noundef %0, ptr noundef %1) #8 {
  %3 = alloca i32, align 4
  %4 = alloca ptr, align 8
  %5 = alloca ptr, align 8
  %6 = alloca i32, align 4
  %7 = alloca i32, align 4
  %8 = alloca i32, align 4
  store ptr %0, ptr %4, align 8, !tbaa !10
  store ptr %1, ptr %5, align 8, !tbaa !77
  call void @llvm.lifetime.start.p0(i64 4, ptr %6) #10
  %9 = load ptr, ptr %5, align 8, !tbaa !77
  %10 = icmp ne ptr %9, null
  br i1 %10, label %11, label %123

11:                                               ; preds = %2
  store i32 0, ptr %6, align 4, !tbaa !3
  br label %12

12:                                               ; preds = %119, %11
  %13 = load i32, ptr %6, align 4, !tbaa !3
  %14 = zext i32 %13 to i64
  %15 = load ptr, ptr %5, align 8, !tbaa !77
  %16 = getelementptr inbounds nuw %struct.trav_table_t, ptr %15, i32 0, i32 2
  %17 = load i64, ptr %16, align 8, !tbaa !79
  %18 = icmp ult i64 %14, %17
  br i1 %18, label %19, label %122

19:                                               ; preds = %12
  %20 = load ptr, ptr %4, align 8, !tbaa !10
  %21 = load ptr, ptr %5, align 8, !tbaa !77
  %22 = getelementptr inbounds nuw %struct.trav_table_t, ptr %21, i32 0, i32 3
  %23 = load ptr, ptr %22, align 8, !tbaa !82
  %24 = load i32, ptr %6, align 4, !tbaa !3
  %25 = zext i32 %24 to i64
  %26 = getelementptr inbounds nuw %struct.trav_obj_t, ptr %23, i64 %25
  %27 = getelementptr inbounds nuw %struct.trav_obj_t, ptr %26, i32 0, i32 3
  %28 = load ptr, ptr %27, align 8, !tbaa !83
  %29 = call i32 @strcmp(ptr noundef %20, ptr noundef %28) #12
  %30 = icmp eq i32 %29, 0
  br i1 %30, label %31, label %33

31:                                               ; preds = %19
  %32 = load i32, ptr %6, align 4, !tbaa !3
  store i32 %32, ptr %3, align 4
  store i32 1, ptr %7, align 4
  br label %124

33:                                               ; preds = %19
  %34 = load ptr, ptr %4, align 8, !tbaa !10
  %35 = load ptr, ptr %5, align 8, !tbaa !77
  %36 = getelementptr inbounds nuw %struct.trav_table_t, ptr %35, i32 0, i32 3
  %37 = load ptr, ptr %36, align 8, !tbaa !82
  %38 = load i32, ptr %6, align 4, !tbaa !3
  %39 = zext i32 %38 to i64
  %40 = getelementptr inbounds nuw %struct.trav_obj_t, ptr %37, i64 %39
  %41 = getelementptr inbounds nuw %struct.trav_obj_t, ptr %40, i32 0, i32 3
  %42 = load ptr, ptr %41, align 8, !tbaa !83
  %43 = getelementptr inbounds i8, ptr %42, i64 1
  %44 = call i32 @strcmp(ptr noundef %34, ptr noundef %43) #12
  %45 = icmp eq i32 %44, 0
  br i1 %45, label %46, label %48

46:                                               ; preds = %33
  %47 = load i32, ptr %6, align 4, !tbaa !3
  store i32 %47, ptr %3, align 4
  store i32 1, ptr %7, align 4
  br label %124

48:                                               ; preds = %33
  %49 = load ptr, ptr %5, align 8, !tbaa !77
  %50 = getelementptr inbounds nuw %struct.trav_table_t, ptr %49, i32 0, i32 3
  %51 = load ptr, ptr %50, align 8, !tbaa !82
  %52 = load i32, ptr %6, align 4, !tbaa !3
  %53 = zext i32 %52 to i64
  %54 = getelementptr inbounds nuw %struct.trav_obj_t, ptr %51, i64 %53
  %55 = getelementptr inbounds nuw %struct.trav_obj_t, ptr %54, i32 0, i32 7
  %56 = load i64, ptr %55, align 8, !tbaa !86
  %57 = icmp ne i64 %56, 0
  br i1 %57, label %58, label %118

58:                                               ; preds = %48
  call void @llvm.lifetime.start.p0(i64 4, ptr %8) #10
  store i32 0, ptr %8, align 4, !tbaa !3
  br label %59

59:                                               ; preds = %111, %58
  %60 = load i32, ptr %8, align 4, !tbaa !3
  %61 = zext i32 %60 to i64
  %62 = load ptr, ptr %5, align 8, !tbaa !77
  %63 = getelementptr inbounds nuw %struct.trav_table_t, ptr %62, i32 0, i32 3
  %64 = load ptr, ptr %63, align 8, !tbaa !82
  %65 = load i32, ptr %6, align 4, !tbaa !3
  %66 = zext i32 %65 to i64
  %67 = getelementptr inbounds nuw %struct.trav_obj_t, ptr %64, i64 %66
  %68 = getelementptr inbounds nuw %struct.trav_obj_t, ptr %67, i32 0, i32 7
  %69 = load i64, ptr %68, align 8, !tbaa !86
  %70 = icmp ult i64 %61, %69
  br i1 %70, label %71, label %114

71:                                               ; preds = %59
  %72 = load ptr, ptr %4, align 8, !tbaa !10
  %73 = load ptr, ptr %5, align 8, !tbaa !77
  %74 = getelementptr inbounds nuw %struct.trav_table_t, ptr %73, i32 0, i32 3
  %75 = load ptr, ptr %74, align 8, !tbaa !82
  %76 = load i32, ptr %6, align 4, !tbaa !3
  %77 = zext i32 %76 to i64
  %78 = getelementptr inbounds nuw %struct.trav_obj_t, ptr %75, i64 %77
  %79 = getelementptr inbounds nuw %struct.trav_obj_t, ptr %78, i32 0, i32 5
  %80 = load ptr, ptr %79, align 8, !tbaa !87
  %81 = load i32, ptr %8, align 4, !tbaa !3
  %82 = zext i32 %81 to i64
  %83 = getelementptr inbounds nuw %struct.trav_link_t, ptr %80, i64 %82
  %84 = getelementptr inbounds nuw %struct.trav_link_t, ptr %83, i32 0, i32 0
  %85 = load ptr, ptr %84, align 8, !tbaa !88
  %86 = call i32 @strcmp(ptr noundef %72, ptr noundef %85) #12
  %87 = icmp eq i32 %86, 0
  br i1 %87, label %88, label %90

88:                                               ; preds = %71
  %89 = load i32, ptr %6, align 4, !tbaa !3
  store i32 %89, ptr %3, align 4
  store i32 1, ptr %7, align 4
  br label %115

90:                                               ; preds = %71
  %91 = load ptr, ptr %4, align 8, !tbaa !10
  %92 = load ptr, ptr %5, align 8, !tbaa !77
  %93 = getelementptr inbounds nuw %struct.trav_table_t, ptr %92, i32 0, i32 3
  %94 = load ptr, ptr %93, align 8, !tbaa !82
  %95 = load i32, ptr %6, align 4, !tbaa !3
  %96 = zext i32 %95 to i64
  %97 = getelementptr inbounds nuw %struct.trav_obj_t, ptr %94, i64 %96
  %98 = getelementptr inbounds nuw %struct.trav_obj_t, ptr %97, i32 0, i32 5
  %99 = load ptr, ptr %98, align 8, !tbaa !87
  %100 = load i32, ptr %8, align 4, !tbaa !3
  %101 = zext i32 %100 to i64
  %102 = getelementptr inbounds nuw %struct.trav_link_t, ptr %99, i64 %101
  %103 = getelementptr inbounds nuw %struct.trav_link_t, ptr %102, i32 0, i32 0
  %104 = load ptr, ptr %103, align 8, !tbaa !88
  %105 = getelementptr inbounds i8, ptr %104, i64 1
  %106 = call i32 @strcmp(ptr noundef %91, ptr noundef %105) #12
  %107 = icmp eq i32 %106, 0
  br i1 %107, label %108, label %110

108:                                              ; preds = %90
  %109 = load i32, ptr %6, align 4, !tbaa !3
  store i32 %109, ptr %3, align 4
  store i32 1, ptr %7, align 4
  br label %115

110:                                              ; preds = %90
  br label %111

111:                                              ; preds = %110
  %112 = load i32, ptr %8, align 4, !tbaa !3
  %113 = add i32 %112, 1
  store i32 %113, ptr %8, align 4, !tbaa !3
  br label %59, !llvm.loop !90

114:                                              ; preds = %59
  store i32 0, ptr %7, align 4
  br label %115

115:                                              ; preds = %114, %108, %88
  call void @llvm.lifetime.end.p0(i64 4, ptr %8) #10
  %116 = load i32, ptr %7, align 4
  switch i32 %116, label %124 [
    i32 0, label %117
  ]

117:                                              ; preds = %115
  br label %118

118:                                              ; preds = %117, %48
  br label %119

119:                                              ; preds = %118
  %120 = load i32, ptr %6, align 4, !tbaa !3
  %121 = add i32 %120, 1
  store i32 %121, ptr %6, align 4, !tbaa !3
  br label %12, !llvm.loop !91

122:                                              ; preds = %12
  br label %123

123:                                              ; preds = %122, %2
  store i32 -1, ptr %3, align 4
  store i32 1, ptr %7, align 4
  br label %124

124:                                              ; preds = %123, %115, %46, %31
  call void @llvm.lifetime.end.p0(i64 4, ptr %6) #10
  %125 = load i32, ptr %3, align 4
  ret i32 %125
}