; Function Attrs: mustprogress nofree nounwind willreturn memory(read, inaccessiblemem: none) uwtable
define i32 @h5trav_getindext(ptr noundef readonly captures(none) %0, ptr noundef readonly captures(address_is_null) %1) local_unnamed_addr #8 {
  %.not = icmp eq ptr %1, null
  br i1 %.not, label %.thread, label %.preheader38

.preheader38:                                     ; preds = %2
  %3 = getelementptr inbounds nuw i8, ptr %1, i64 16
  %4 = load i64, ptr %3, align 8, !tbaa !70
  %.not47 = icmp eq i64 %4, 0
  br i1 %.not47, label %.thread, label %.lr.ph

.lr.ph:                                           ; preds = %.preheader38
  %5 = getelementptr inbounds nuw i8, ptr %1, i64 24
  %6 = load ptr, ptr %5, align 8, !tbaa !74
  br label %7

7:                                                ; preds = %.lr.ph, %.loopexit
  %8 = phi i64 [ 0, %.lr.ph ], [ %37, %.loopexit ]
  %.03042 = phi i32 [ 0, %.lr.ph ], [ %36, %.loopexit ]
  %9 = getelementptr inbounds nuw %struct.trav_obj_t, ptr %6, i64 %8
  %10 = getelementptr inbounds nuw i8, ptr %9, i64 32
  %11 = load ptr, ptr %10, align 8, !tbaa !75
  %12 = tail call i32 @strcmp(ptr noundef nonnull dereferenceable(1) %0, ptr noundef nonnull dereferenceable(1) %11) #20
  %13 = icmp eq i32 %12, 0
  br i1 %13, label %.thread, label %14

14:                                               ; preds = %7
  %15 = getelementptr inbounds nuw i8, ptr %11, i64 1
  %16 = tail call i32 @strcmp(ptr noundef nonnull dereferenceable(1) %0, ptr noundef nonnull dereferenceable(1) %15) #20
  %17 = icmp eq i32 %16, 0
  br i1 %17, label %.thread, label %18

18:                                               ; preds = %14
  %19 = getelementptr inbounds nuw i8, ptr %9, i64 64
  %20 = load i64, ptr %19, align 8, !tbaa !80
  %.not35 = icmp eq i64 %20, 0
  br i1 %.not35, label %.loopexit, label %.preheader

.preheader:                                       ; preds = %18
  %21 = getelementptr inbounds nuw i8, ptr %9, i64 48
  %22 = load ptr, ptr %21, align 8, !tbaa !82
  br label %26

23:                                               ; preds = %32
  %24 = add i32 %.041, 1
  %25 = zext i32 %24 to i64
  %.not36 = icmp ugt i64 %20, %25
  br i1 %.not36, label %26, label %.loopexit, !llvm.loop !86

26:                                               ; preds = %.preheader, %23
  %27 = phi i64 [ 0, %.preheader ], [ %25, %23 ]
  %.041 = phi i32 [ 0, %.preheader ], [ %24, %23 ]
  %28 = getelementptr inbounds nuw %struct.trav_link_t, ptr %22, i64 %27
  %29 = load ptr, ptr %28, align 8, !tbaa !83
  %30 = tail call i32 @strcmp(ptr noundef nonnull dereferenceable(1) %0, ptr noundef nonnull dereferenceable(1) %29) #20
  %31 = icmp eq i32 %30, 0
  br i1 %31, label %.thread, label %32

32:                                               ; preds = %26
  %33 = getelementptr inbounds nuw i8, ptr %29, i64 1
  %34 = tail call i32 @strcmp(ptr noundef nonnull dereferenceable(1) %0, ptr noundef nonnull dereferenceable(1) %33) #20
  %35 = icmp eq i32 %34, 0
  br i1 %35, label %.thread, label %23

.loopexit:                                        ; preds = %23, %18
  %36 = add i32 %.03042, 1
  %37 = zext i32 %36 to i64
  %38 = icmp ugt i64 %4, %37
  br i1 %38, label %7, label %.thread, !llvm.loop !87

.thread:                                          ; preds = %7, %14, %.loopexit, %26, %32, %.preheader38, %2
  %.1 = phi i32 [ -1, %2 ], [ -1, %.preheader38 ], [ %.03042, %32 ], [ %.03042, %26 ], [ %.03042, %7 ], [ %.03042, %14 ], [ -1, %.loopexit ]
  ret i32 %.1
}